target datalayout = "e-m:e-p270:32:32-p271:32:32-p272:64:64-i64:64-i128:128-f80:128-n8:16:32:64-S128"
target triple = "x86_64-pc-linux-gnu"

%class.sexpr = type { i32, i32, i32, i32 }

; Function Attrs: mustprogress nounwind uwtable
define hidden void @_ZN5sexprC2ENS_6kind_tEjj(ptr noundef nonnull align 4 dereferenceable(16) %0, i32 noundef %1, i32 noundef %2, i32 noundef %3) unnamed_addr #4 align 2 {
  %5 = alloca ptr, align 8
  %6 = alloca i32, align 4
  %7 = alloca i32, align 4
  %8 = alloca i32, align 4
  store ptr %0, ptr %5, align 8, !tbaa !3
  store i32 %1, ptr %6, align 4, !tbaa !8
  store i32 %2, ptr %7, align 4, !tbaa !10
  store i32 %3, ptr %8, align 4, !tbaa !10
  %9 = load ptr, ptr %5, align 8
  %10 = getelementptr inbounds nuw %class.sexpr, ptr %9, i32 0, i32 0
  %11 = load i32, ptr %6, align 4, !tbaa !8
  store i32 %11, ptr %10, align 4, !tbaa !12
  %12 = getelementptr inbounds nuw %class.sexpr, ptr %9, i32 0, i32 1
  store i32 0, ptr %12, align 4, !tbaa !14
  %13 = getelementptr inbounds nuw %class.sexpr, ptr %9, i32 0, i32 2
  %14 = load i32, ptr %7, align 4, !tbaa !10
  store i32 %14, ptr %13, align 4, !tbaa !15
  %15 = getelementptr inbounds nuw %class.sexpr, ptr %9, i32 0, i32 3
  %16 = load i32, ptr %8, align 4, !tbaa !10
  store i32 %16, ptr %15, align 4, !tbaa !16
  ret void
}