; Function Attrs: mustprogress nofree norecurse nosync nounwind willreturn memory(argmem: write) uwtable
define hidden void @_ZN5sexprC2ENS_6kind_tEjj(ptr noundef nonnull writeonly align 4 captures(none) dereferenceable(16) initializes((0, 16)) %0, i32 noundef %1, i32 noundef %2, i32 noundef %3) unnamed_addr #3 align 2 {
  store i32 %1, ptr %0, align 4, !tbaa !3
  %5 = getelementptr inbounds nuw i8, ptr %0, i64 4
  store i32 0, ptr %5, align 4, !tbaa !9
  %6 = getelementptr inbounds nuw i8, ptr %0, i64 8
  store i32 %2, ptr %6, align 4, !tbaa !10
  %7 = getelementptr inbounds nuw i8, ptr %0, i64 12
  store i32 %3, ptr %7, align 4, !tbaa !11
  ret void
}